target datalayout = "e-m:e-p270:32:32-p271:32:32-p272:64:64-i64:64-i128:128-f80:128-n8:16:32:64-S128"
target triple = "x86_64-pc-linux-gnu"

@hf_cql_string_result_rows_global_table_spec_ksname = internal global i32 0, align 4
@hf_cql_string_result_rows_global_table_spec_table_name = internal global i32 0, align 4
@hf_cql_string_result_rows_table_name = internal global i32 0, align 4
@hf_cql_string_result_rows_keyspace_name = internal global i32 0, align 4
@hf_cql_string_result_rows_column_name = internal global i32 0, align 4
@hf_cql_string_length = internal global i32 0, align 4
@ett_cql_result_metadata_colspec = internal global i32 0, align 4
@.str.344 = private unnamed_addr constant [7 x i8] c"Column\00", align 1
@.str.345 = private unnamed_addr constant [20 x i8] c" # %d specification\00", align 1

; Function Attrs: null_pointer_is_valid sspstrong uwtable
define internal i32 @parse_result_metadata(ptr noundef %0, ptr noundef %1, ptr noundef %2, i32 noundef %3, i32 noundef %4, i32 noundef %5) #0 {
  %7 = alloca i32, align 4
  %8 = alloca ptr, align 8
  %9 = alloca ptr, align 8
  %10 = alloca ptr, align 8
  %11 = alloca i32, align 4
  %12 = alloca i32, align 4
  %13 = alloca i32, align 4
  %14 = alloca ptr, align 8
  %15 = alloca i32, align 4
  %16 = alloca i32, align 4
  %17 = alloca i32, align 4
  store ptr %0, ptr %8, align 8
  store ptr %1, ptr %9, align 8
  store ptr %2, ptr %10, align 8
  store i32 %3, ptr %11, align 4
  store i32 %4, ptr %12, align 4
  store i32 %5, ptr %13, align 4
  call void @llvm.lifetime.start.p0(i64 8, ptr %14) #8
  store ptr null, ptr %14, align 8
  call void @llvm.lifetime.start.p0(i64 4, ptr %15) #8
  store i32 0, ptr %15, align 4
  call void @llvm.lifetime.start.p0(i64 4, ptr %16) #8
  %18 = load i32, ptr %12, align 4
  %19 = and i32 %18, 4
  %20 = icmp ne i32 %19, 0
  br i1 %20, label %21, label %23

21:                                               ; preds = %6
  %22 = load i32, ptr %11, align 4
  store i32 %22, ptr %7, align 4
  store i32 1, ptr %17, align 4
  br label %137

23:                                               ; preds = %6
  %24 = load i32, ptr %12, align 4
  %25 = and i32 %24, 5
  %26 = icmp eq i32 %25, 1
  br i1 %26, label %27, label %60

27:                                               ; preds = %23
  %28 = load ptr, ptr %8, align 8
  %29 = load i32, ptr @hf_cql_string_length, align 4
  %30 = load ptr, ptr %10, align 8
  %31 = load i32, ptr %11, align 4
  %32 = call ptr @proto_tree_add_item_ret_uint(ptr noundef %28, i32 noundef %29, ptr noundef %30, i32 noundef %31, i32 noundef 2, i32 noundef 0, ptr noundef %15)
  %33 = load i32, ptr %11, align 4
  %34 = add i32 %33, 2
  store i32 %34, ptr %11, align 4
  %35 = load ptr, ptr %8, align 8
  %36 = load i32, ptr @hf_cql_string_result_rows_global_table_spec_ksname, align 4
  %37 = load ptr, ptr %10, align 8
  %38 = load i32, ptr %11, align 4
  %39 = load i32, ptr %15, align 4
  %40 = call ptr @proto_tree_add_item(ptr noundef %35, i32 noundef %36, ptr noundef %37, i32 noundef %38, i32 noundef %39, i32 noundef 2)
  %41 = load i32, ptr %15, align 4
  %42 = load i32, ptr %11, align 4
  %43 = add i32 %42, %41
  store i32 %43, ptr %11, align 4
  %44 = load ptr, ptr %8, align 8
  %45 = load i32, ptr @hf_cql_string_length, align 4
  %46 = load ptr, ptr %10, align 8
  %47 = load i32, ptr %11, align 4
  %48 = call ptr @proto_tree_add_item_ret_uint(ptr noundef %44, i32 noundef %45, ptr noundef %46, i32 noundef %47, i32 noundef 2, i32 noundef 0, ptr noundef %15)
  %49 = load i32, ptr %11, align 4
  %50 = add i32 %49, 2
  store i32 %50, ptr %11, align 4
  %51 = load ptr, ptr %8, align 8
  %52 = load i32, ptr @hf_cql_string_result_rows_global_table_spec_table_name, align 4
  %53 = load ptr, ptr %10, align 8
  %54 = load i32, ptr %11, align 4
  %55 = load i32, ptr %15, align 4
  %56 = call ptr @proto_tree_add_item(ptr noundef %51, i32 noundef %52, ptr noundef %53, i32 noundef %54, i32 noundef %55, i32 noundef 2)
  %57 = load i32, ptr %15, align 4
  %58 = load i32, ptr %11, align 4
  %59 = add i32 %58, %57
  store i32 %59, ptr %11, align 4
  br label %60

60:                                               ; preds = %27, %23
  store i32 0, ptr %16, align 4
  br label %61

61:                                               ; preds = %132, %60
  %62 = load i32, ptr %16, align 4
  %63 = load i32, ptr %13, align 4
  %64 = icmp slt i32 %62, %63
  br i1 %64, label %65, label %135

65:                                               ; preds = %61
  %66 = load ptr, ptr %8, align 8
  %67 = load ptr, ptr %10, align 8
  %68 = load i32, ptr %11, align 4
  %69 = load i32, ptr @ett_cql_result_metadata_colspec, align 4
  %70 = call ptr @proto_tree_add_subtree(ptr noundef %66, ptr noundef %67, i32 noundef %68, i32 noundef 0, i32 noundef %69, ptr noundef null, ptr noundef @.str.344)
  store ptr %70, ptr %14, align 8
  %71 = load ptr, ptr %14, align 8
  %72 = load i32, ptr %16, align 4
  %73 = add i32 %72, 1
  call void (ptr, ptr, ...) @proto_item_append_text(ptr noundef %71, ptr noundef @.str.345, i32 noundef %73)
  %74 = load i32, ptr %12, align 4
  %75 = and i32 %74, 1
  %76 = icmp ne i32 %75, 0
  br i1 %76, label %110, label %77

77:                                               ; preds = %65
  %78 = load ptr, ptr %14, align 8
  %79 = load i32, ptr @hf_cql_string_length, align 4
  %80 = load ptr, ptr %10, align 8
  %81 = load i32, ptr %11, align 4
  %82 = call ptr @proto_tree_add_item_ret_uint(ptr noundef %78, i32 noundef %79, ptr noundef %80, i32 noundef %81, i32 noundef 2, i32 noundef 0, ptr noundef %15)
  %83 = load i32, ptr %11, align 4
  %84 = add i32 %83, 2
  store i32 %84, ptr %11, align 4
  %85 = load ptr, ptr %14, align 8
  %86 = load i32, ptr @hf_cql_string_result_rows_keyspace_name, align 4
  %87 = load ptr, ptr %10, align 8
  %88 = load i32, ptr %11, align 4
  %89 = load i32, ptr %15, align 4
  %90 = call ptr @proto_tree_add_item(ptr noundef %85, i32 noundef %86, ptr noundef %87, i32 noundef %88, i32 noundef %89, i32 noundef 2)
  %91 = load i32, ptr %15, align 4
  %92 = load i32, ptr %11, align 4
  %93 = add i32 %92, %91
  store i32 %93, ptr %11, align 4
  %94 = load ptr, ptr %14, align 8
  %95 = load i32, ptr @hf_cql_string_length, align 4
  %96 = load ptr, ptr %10, align 8
  %97 = load i32, ptr %11, align 4
  %98 = call ptr @proto_tree_add_item_ret_uint(ptr noundef %94, i32 noundef %95, ptr noundef %96, i32 noundef %97, i32 noundef 2, i32 noundef 0, ptr noundef %15)
  %99 = load i32, ptr %11, align 4
  %100 = add i32 %99, 2
  store i32 %100, ptr %11, align 4
  %101 = load ptr, ptr %14, align 8
  %102 = load i32, ptr @hf_cql_string_result_rows_table_name, align 4
  %103 = load ptr, ptr %10, align 8
  %104 = load i32, ptr %11, align 4
  %105 = load i32, ptr %15, align 4
  %106 = call ptr @proto_tree_add_item(ptr noundef %101, i32 noundef %102, ptr noundef %103, i32 noundef %104, i32 noundef %105, i32 noundef 2)
  %107 = load i32, ptr %15, align 4
  %108 = load i32, ptr %11, align 4
  %109 = add i32 %108, %107
  store i32 %109, ptr %11, align 4
  br label %110

110:                                              ; preds = %77, %65
  %111 = load ptr, ptr %14, align 8
  %112 = load i32, ptr @hf_cql_string_length, align 4
  %113 = load ptr, ptr %10, align 8
  %114 = load i32, ptr %11, align 4
  %115 = call ptr @proto_tree_add_item_ret_uint(ptr noundef %111, i32 noundef %112, ptr noundef %113, i32 noundef %114, i32 noundef 2, i32 noundef 0, ptr noundef %15)
  %116 = load i32, ptr %11, align 4
  %117 = add i32 %116, 2
  store i32 %117, ptr %11, align 4
  %118 = load ptr, ptr %14, align 8
  %119 = load i32, ptr @hf_cql_string_result_rows_column_name, align 4
  %120 = load ptr, ptr %10, align 8
  %121 = load i32, ptr %11, align 4
  %122 = load i32, ptr %15, align 4
  %123 = call ptr @proto_tree_add_item(ptr noundef %118, i32 noundef %119, ptr noundef %120, i32 noundef %121, i32 noundef %122, i32 noundef 2)
  %124 = load i32, ptr %15, align 4
  %125 = load i32, ptr %11, align 4
  %126 = add i32 %125, %124
  store i32 %126, ptr %11, align 4
  %127 = load ptr, ptr %14, align 8
  %128 = load ptr, ptr %9, align 8
  %129 = load ptr, ptr %10, align 8
  %130 = load i32, ptr %11, align 4
  %131 = call i32 @parse_option(ptr noundef %127, ptr noundef %128, ptr noundef %129, i32 noundef %130)
  store i32 %131, ptr %11, align 4
  br label %132

132:                                              ; preds = %110
  %133 = load i32, ptr %16, align 4
  %134 = add i32 %133, 1
  store i32 %134, ptr %16, align 4
  br label %61, !llvm.loop !21

135:                                              ; preds = %61
  %136 = load i32, ptr %11, align 4
  store i32 %136, ptr %7, align 4
  store i32 1, ptr %17, align 4
  br label %137

137:                                              ; preds = %135, %21
  call void @llvm.lifetime.end.p0(i64 4, ptr %16) #8
  call void @llvm.lifetime.end.p0(i64 4, ptr %15) #8
  call void @llvm.lifetime.end.p0(i64 8, ptr %14) #8
  %138 = load i32, ptr %7, align 4
  ret i32 %138
}