; Function Attrs: null_pointer_is_valid sspstrong uwtable
define internal fastcc i32 @parse_result_metadata(ptr noundef %0, ptr noundef %1, ptr noundef %2, i32 noundef %3, i32 noundef %4, i32 noundef %5) unnamed_addr #0 {
  %7 = alloca i32, align 4
  call void @llvm.lifetime.start.p0(i64 4, ptr nonnull %7) #8
  store i32 0, ptr %7, align 4
  %8 = and i32 %4, 4
  %.not = icmp eq i32 %8, 0
  br i1 %.not, label %9, label %.loopexit

9:                                                ; preds = %6
  %10 = and i32 %4, 1
  %.not59 = icmp eq i32 %10, 0
  br i1 %.not59, label %11, label %.thread

11:                                               ; preds = %9
  %12 = icmp sgt i32 %5, 0
  br i1 %12, label %.lr.ph.split.us, label %.loopexit

.thread:                                          ; preds = %9
  %13 = load i32, ptr @hf_cql_string_length, align 4
  %14 = call ptr @proto_tree_add_item_ret_uint(ptr noundef %0, i32 noundef %13, ptr noundef %2, i32 noundef %3, i32 noundef 2, i32 noundef 0, ptr noundef nonnull %7)
  %15 = add i32 %3, 2
  %16 = load i32, ptr @hf_cql_string_result_rows_global_table_spec_ksname, align 4
  %17 = load i32, ptr %7, align 4
  %18 = call ptr @proto_tree_add_item(ptr noundef %0, i32 noundef %16, ptr noundef %2, i32 noundef %15, i32 noundef %17, i32 noundef 2)
  %19 = load i32, ptr %7, align 4
  %20 = add i32 %19, %15
  %21 = load i32, ptr @hf_cql_string_length, align 4
  %22 = call ptr @proto_tree_add_item_ret_uint(ptr noundef %0, i32 noundef %21, ptr noundef %2, i32 noundef %20, i32 noundef 2, i32 noundef 0, ptr noundef nonnull %7)
  %23 = add i32 %20, 2
  %24 = load i32, ptr @hf_cql_string_result_rows_global_table_spec_table_name, align 4
  %25 = load i32, ptr %7, align 4
  %26 = call ptr @proto_tree_add_item(ptr noundef %0, i32 noundef %24, ptr noundef %2, i32 noundef %23, i32 noundef %25, i32 noundef 2)
  %27 = load i32, ptr %7, align 4
  %28 = add i32 %27, %23
  %29 = icmp sgt i32 %5, 0
  br i1 %29, label %.lr.ph.split, label %.loopexit

.lr.ph.split.us:                                  ; preds = %11, %.lr.ph.split.us
  %.062.us = phi i32 [ %32, %.lr.ph.split.us ], [ 0, %11 ]
  %.161.us = phi i32 [ %57, %.lr.ph.split.us ], [ %3, %11 ]
  %30 = load i32, ptr @ett_cql_result_metadata_colspec, align 4
  %31 = call ptr @proto_tree_add_subtree(ptr noundef %0, ptr noundef %2, i32 noundef %.161.us, i32 noundef 0, i32 noundef %30, ptr noundef null, ptr noundef nonnull @.str.344)
  %32 = add nuw nsw i32 %.062.us, 1
  call void (ptr, ptr, ...) @proto_item_append_text(ptr noundef %31, ptr noundef nonnull @.str.345, i32 noundef %32)
  %33 = load i32, ptr @hf_cql_string_length, align 4
  %34 = call ptr @proto_tree_add_item_ret_uint(ptr noundef %31, i32 noundef %33, ptr noundef %2, i32 noundef %.161.us, i32 noundef 2, i32 noundef 0, ptr noundef nonnull %7)
  %35 = add i32 %.161.us, 2
  %36 = load i32, ptr @hf_cql_string_result_rows_keyspace_name, align 4
  %37 = load i32, ptr %7, align 4
  %38 = call ptr @proto_tree_add_item(ptr noundef %31, i32 noundef %36, ptr noundef %2, i32 noundef %35, i32 noundef %37, i32 noundef 2)
  %39 = load i32, ptr %7, align 4
  %40 = add i32 %39, %35
  %41 = load i32, ptr @hf_cql_string_length, align 4
  %42 = call ptr @proto_tree_add_item_ret_uint(ptr noundef %31, i32 noundef %41, ptr noundef %2, i32 noundef %40, i32 noundef 2, i32 noundef 0, ptr noundef nonnull %7)
  %43 = add i32 %40, 2
  %44 = load i32, ptr @hf_cql_string_result_rows_table_name, align 4
  %45 = load i32, ptr %7, align 4
  %46 = call ptr @proto_tree_add_item(ptr noundef %31, i32 noundef %44, ptr noundef %2, i32 noundef %43, i32 noundef %45, i32 noundef 2)
  %47 = load i32, ptr %7, align 4
  %48 = add i32 %47, %43
  %49 = load i32, ptr @hf_cql_string_length, align 4
  %50 = call ptr @proto_tree_add_item_ret_uint(ptr noundef %31, i32 noundef %49, ptr noundef %2, i32 noundef %48, i32 noundef 2, i32 noundef 0, ptr noundef nonnull %7)
  %51 = add i32 %48, 2
  %52 = load i32, ptr @hf_cql_string_result_rows_column_name, align 4
  %53 = load i32, ptr %7, align 4
  %54 = call ptr @proto_tree_add_item(ptr noundef %31, i32 noundef %52, ptr noundef %2, i32 noundef %51, i32 noundef %53, i32 noundef 2)
  %55 = load i32, ptr %7, align 4
  %56 = add i32 %55, %51
  %57 = call fastcc i32 @parse_option(ptr noundef %31, ptr noundef %1, ptr noundef %2, i32 noundef %56)
  %exitcond65.not = icmp eq i32 %32, %5
  br i1 %exitcond65.not, label %.loopexit, label %.lr.ph.split.us, !llvm.loop !19

.lr.ph.split:                                     ; preds = %.thread, %.lr.ph.split
  %.062 = phi i32 [ %60, %.lr.ph.split ], [ 0, %.thread ]
  %.161 = phi i32 [ %69, %.lr.ph.split ], [ %28, %.thread ]
  %58 = load i32, ptr @ett_cql_result_metadata_colspec, align 4
  %59 = call ptr @proto_tree_add_subtree(ptr noundef %0, ptr noundef %2, i32 noundef %.161, i32 noundef 0, i32 noundef %58, ptr noundef null, ptr noundef nonnull @.str.344)
  %60 = add nuw nsw i32 %.062, 1
  call void (ptr, ptr, ...) @proto_item_append_text(ptr noundef %59, ptr noundef nonnull @.str.345, i32 noundef %60)
  %61 = load i32, ptr @hf_cql_string_length, align 4
  %62 = call ptr @proto_tree_add_item_ret_uint(ptr noundef %59, i32 noundef %61, ptr noundef %2, i32 noundef %.161, i32 noundef 2, i32 noundef 0, ptr noundef nonnull %7)
  %63 = add i32 %.161, 2
  %64 = load i32, ptr @hf_cql_string_result_rows_column_name, align 4
  %65 = load i32, ptr %7, align 4
  %66 = call ptr @proto_tree_add_item(ptr noundef %59, i32 noundef %64, ptr noundef %2, i32 noundef %63, i32 noundef %65, i32 noundef 2)
  %67 = load i32, ptr %7, align 4
  %68 = add i32 %67, %63
  %69 = call fastcc i32 @parse_option(ptr noundef %59, ptr noundef %1, ptr noundef %2, i32 noundef %68)
  %exitcond.not = icmp eq i32 %60, %5
  br i1 %exitcond.not, label %.loopexit, label %.lr.ph.split, !llvm.loop !19

.loopexit:                                        ; preds = %.lr.ph.split, %.lr.ph.split.us, %.thread, %11, %6
  %.057 = phi i32 [ %3, %6 ], [ %3, %11 ], [ %28, %.thread ], [ %57, %.lr.ph.split.us ], [ %69, %.lr.ph.split ]
  call void @llvm.lifetime.end.p0(i64 4, ptr nonnull %7) #8
  ret i32 %.057
}